; ModuleID = '32/2420.c'
source_filename = "32/2420.c"
target datalayout = "e-m:e-p270:32:32-p271:32:32-p272:64:64-i64:64-f80:128-n8:16:32:64-S128"
target triple = "x86_64-pc-linux-gnu"

@.str = private unnamed_addr constant [3 x i8] c"%d\00", align 1
@.str.1 = private unnamed_addr constant [3 x i8] c"%s\00", align 1
@.str.2 = private unnamed_addr constant [3 x i8] c"%c\00", align 1
@.str.3 = private unnamed_addr constant [2 x i8] c"\0A\00", align 1

; Function Attrs: noinline nounwind uwtable
define dso_local i32 @main() #0 {
  %1 = alloca i32, align 4
  %2 = alloca i32, align 4
  %3 = alloca i32, align 4
  %4 = alloca i32, align 4
  %5 = alloca i32, align 4
  %6 = alloca i32, align 4
  %7 = alloca i32, align 4
  %8 = alloca [100 x i8], align 16
  %9 = alloca [100 x i8], align 16
  %10 = alloca [100 x i8], align 16
  store i32 0, i32* %1, align 4
  %11 = bitcast [100 x i8]* %10 to i8*
  call void @llvm.memset.p0i8.i64(i8* align 16 %11, i8 0, i64 100, i1 false)
  %12 = call i32 (i8*, ...) @__isoc99_scanf(i8* getelementptr inbounds ([3 x i8], [3 x i8]* @.str, i64 0, i64 0), i32* %2)
  store i32 0, i32* %3, align 4
  br label %13

13:                                               ; preds = %130, %0
  %14 = load i32, i32* %3, align 4
  %15 = load i32, i32* %2, align 4
  %16 = icmp slt i32 %14, %15
  br i1 %16, label %17, label %133

17:                                               ; preds = %13
  %18 = getelementptr inbounds [100 x i8], [100 x i8]* %8, i64 0, i64 0
  %19 = call i32 (i8*, ...) @__isoc99_scanf(i8* getelementptr inbounds ([3 x i8], [3 x i8]* @.str.1, i64 0, i64 0), i8* %18)
  %20 = getelementptr inbounds [100 x i8], [100 x i8]* %9, i64 0, i64 0
  %21 = call i32 (i8*, ...) @__isoc99_scanf(i8* getelementptr inbounds ([3 x i8], [3 x i8]* @.str.1, i64 0, i64 0), i8* %20)
  %22 = getelementptr inbounds [100 x i8], [100 x i8]* %8, i64 0, i64 0
  %23 = call i64 @strlen(i8* %22) #4
  %24 = trunc i64 %23 to i32
  store i32 %24, i32* %5, align 4
  %25 = getelementptr inbounds [100 x i8], [100 x i8]* %9, i64 0, i64 0
  %26 = call i64 @strlen(i8* %25) #4
  %27 = trunc i64 %26 to i32
  store i32 %27, i32* %6, align 4
  store i32 0, i32* %4, align 4
  br label %28

28:                                               ; preds = %75, %17
  %29 = load i32, i32* %4, align 4
  %30 = load i32, i32* %6, align 4
  %31 = icmp slt i32 %29, %30
  br i1 %31, label %32, label %78

32:                                               ; preds = %28
  %33 = load i32, i32* %5, align 4
  %34 = sub nsw i32 %33, 1
  %35 = load i32, i32* %4, align 4
  %36 = sub nsw i32 %34, %35
  %37 = sext i32 %36 to i64
  %38 = getelementptr inbounds [100 x i8], [100 x i8]* %8, i64 0, i64 %37
  %39 = load i8, i8* %38, align 1
  %40 = sext i8 %39 to i32
  %41 = load i32, i32* %6, align 4
  %42 = sub nsw i32 %41, 1
  %43 = load i32, i32* %4, align 4
  %44 = sub nsw i32 %42, %43
  %45 = sext i32 %44 to i64
  %46 = getelementptr inbounds [100 x i8], [100 x i8]* %9, i64 0, i64 %45
  %47 = load i8, i8* %46, align 1
  %48 = sext i8 %47 to i32
  %49 = sub nsw i32 %40, %48
  store i32 %49, i32* %7, align 4
  %50 = load i32, i32* %7, align 4
  %51 = icmp slt i32 %50, 0
  br i1 %51, label %52, label %65

52:                                               ; preds = %32
  %53 = load i32, i32* %7, align 4
  %54 = add nsw i32 %53, 10
  store i32 %54, i32* %7, align 4
  %55 = load i32, i32* %5, align 4
  %56 = sub nsw i32 %55, 2
  %57 = load i32, i32* %4, align 4
  %58 = sub nsw i32 %56, %57
  %59 = sext i32 %58 to i64
  %60 = getelementptr inbounds [100 x i8], [100 x i8]* %8, i64 0, i64 %59
  %61 = load i8, i8* %60, align 1
  %62 = sext i8 %61 to i32
  %63 = sub nsw i32 %62, 1
  %64 = trunc i32 %63 to i8
  store i8 %64, i8* %60, align 1
  br label %65

65:                                               ; preds = %52, %32
  %66 = load i32, i32* %7, align 4
  %67 = add nsw i32 48, %66
  %68 = trunc i32 %67 to i8
  %69 = load i32, i32* %5, align 4
  %70 = sub nsw i32 %69, 1
  %71 = load i32, i32* %4, align 4
  %72 = sub nsw i32 %70, %71
  %73 = sext i32 %72 to i64
  %74 = getelementptr inbounds [100 x i8], [100 x i8]* %10, i64 0, i64 %73
  store i8 %68, i8* %74, align 1
  br label %75

75:                                               ; preds = %65
  %76 = load i32, i32* %4, align 4
  %77 = add nsw i32 %76, 1
  store i32 %77, i32* %4, align 4
  br label %28

78:                                               ; preds = %28
  store i32 0, i32* %4, align 4
  br label %79

79:                                               ; preds = %93, %78
  %80 = load i32, i32* %4, align 4
  %81 = load i32, i32* %5, align 4
  %82 = load i32, i32* %6, align 4
  %83 = sub nsw i32 %81, %82
  %84 = icmp slt i32 %80, %83
  br i1 %84, label %85, label %96

85:                                               ; preds = %79
  %86 = load i32, i32* %4, align 4
  %87 = sext i32 %86 to i64
  %88 = getelementptr inbounds [100 x i8], [100 x i8]* %8, i64 0, i64 %87
  %89 = load i8, i8* %88, align 1
  %90 = load i32, i32* %4, align 4
  %91 = sext i32 %90 to i64
  %92 = getelementptr inbounds [100 x i8], [100 x i8]* %10, i64 0, i64 %91
  store i8 %89, i8* %92, align 1
  br label %93

93:                                               ; preds = %85
  %94 = load i32, i32* %4, align 4
  %95 = add nsw i32 %94, 1
  store i32 %95, i32* %4, align 4
  br label %79

96:                                               ; preds = %79
  store i32 0, i32* %4, align 4
  br label %97

97:                                               ; preds = %110, %96
  %98 = load i32, i32* %4, align 4
  %99 = load i32, i32* %5, align 4
  %100 = icmp slt i32 %98, %99
  br i1 %100, label %101, label %113

101:                                              ; preds = %97
  %102 = load i32, i32* %4, align 4
  %103 = sext i32 %102 to i64
  %104 = getelementptr inbounds [100 x i8], [100 x i8]* %10, i64 0, i64 %103
  %105 = load i8, i8* %104, align 1
  %106 = sext i8 %105 to i32
  %107 = icmp ne i32 %106, 48
  br i1 %107, label %108, label %109

108:                                              ; preds = %101
  br label %113

109:                                              ; preds = %101
  br label %110

110:                                              ; preds = %109
  %111 = load i32, i32* %4, align 4
  %112 = add nsw i32 %111, 1
  store i32 %112, i32* %4, align 4
  br label %97

113:                                              ; preds = %108, %97
  br label %114

114:                                              ; preds = %125, %113
  %115 = load i32, i32* %4, align 4
  %116 = load i32, i32* %5, align 4
  %117 = icmp slt i32 %115, %116
  br i1 %117, label %118, label %128

118:                                              ; preds = %114
  %119 = load i32, i32* %4, align 4
  %120 = sext i32 %119 to i64
  %121 = getelementptr inbounds [100 x i8], [100 x i8]* %10, i64 0, i64 %120
  %122 = load i8, i8* %121, align 1
  %123 = sext i8 %122 to i32
  %124 = call i32 (i8*, ...) @printf(i8* getelementptr inbounds ([3 x i8], [3 x i8]* @.str.2, i64 0, i64 0), i32 %123)
  br label %125

125:                                              ; preds = %118
  %126 = load i32, i32* %4, align 4
  %127 = add nsw i32 %126, 1
  store i32 %127, i32* %4, align 4
  br label %114

128:                                              ; preds = %114
  %129 = call i32 (i8*, ...) @printf(i8* getelementptr inbounds ([2 x i8], [2 x i8]* @.str.3, i64 0, i64 0))
  br label %130

130:                                              ; preds = %128
  %131 = load i32, i32* %3, align 4
  %132 = add nsw i32 %131, 1
  store i32 %132, i32* %3, align 4
  br label %13

133:                                              ; preds = %13
  %134 = load i32, i32* %1, align 4
  ret i32 %134
}

; Function Attrs: argmemonly nounwind willreturn
declare void @llvm.memset.p0i8.i64(i8* nocapture writeonly, i8, i64, i1 immarg) #1

declare dso_local i32 @__isoc99_scanf(i8*, ...) #2

; Function Attrs: nounwind readonly
declare dso_local i64 @strlen(i8*) #3

declare dso_local i32 @printf(i8*, ...) #2


!llvm.module.flags = !{!0}
!llvm.ident = !{!1}

!0 = !{i32 1, !"wchar_size", i32 4}
!1 = !{!"clang version 10.0.0-4ubuntu1 "}
